target datalayout = "e-m:e-p270:32:32-p271:32:32-p272:64:64-i64:64-i128:128-f80:128-n8:16:32:64-S128"
target triple = "x86_64-pc-linux-gnu"

%"class.std::_Function_base" = type { %"union.std::_Any_data", ptr }
%"union.std::_Any_data" = type { %"union.std::_Nocopy_types" }
%"union.std::_Nocopy_types" = type { { i64, i64 } }
%"class.sat::lut_finder" = type { ptr, i32, %class.vector, i64, i32, %class.ptr_vector, %class.svector, %class.svector, %class.svector.2, %class.svector, [7 x i64], %class.ptr_vector, %"class.std::function" }
%class.vector = type { ptr }
%class.svector.2 = type { %class.vector.3 }
%class.vector.3 = type { ptr }
%class.svector = type { %class.vector.1 }
%class.vector.1 = type { ptr }
%class.ptr_vector = type { %class.vector.0 }
%class.vector.0 = type { ptr }
%"class.std::function" = type { %"class.std::_Function_base", ptr }

; Function Attrs: mustprogress nounwind uwtable
define hidden noundef zeroext i1 @_ZN3sat10lut_finder14lut_is_definedEjj(ptr noundef nonnull align 8 dereferenceable(176) %0, i32 noundef %1, i32 noundef %2) #5 align 2 {
  %4 = alloca ptr, align 8
  %5 = alloca i32, align 4
  %6 = alloca i32, align 4
  %7 = alloca i64, align 8
  %8 = alloca i64, align 8
  store ptr %0, ptr %4, align 8, !tbaa !3
  store i32 %1, ptr %5, align 4, !tbaa !29
  store i32 %2, ptr %6, align 4, !tbaa !29
  %9 = load ptr, ptr %4, align 8
  call void @llvm.lifetime.start.p0(i64 8, ptr %7) #3
  %10 = getelementptr inbounds nuw %"class.sat::lut_finder", ptr %9, i32 0, i32 3
  %11 = load i64, ptr %10, align 8, !tbaa !55
  %12 = getelementptr inbounds nuw %"class.sat::lut_finder", ptr %9, i32 0, i32 3
  %13 = load i64, ptr %12, align 8, !tbaa !55
  %14 = load i32, ptr %5, align 4, !tbaa !29
  %15 = zext i32 %14 to i64
  %16 = shl i64 1, %15
  %17 = lshr i64 %13, %16
  %18 = or i64 %11, %17
  store i64 %18, ptr %7, align 8, !tbaa !30
  call void @llvm.lifetime.start.p0(i64 8, ptr %8) #3
  %19 = getelementptr inbounds nuw %"class.sat::lut_finder", ptr %9, i32 0, i32 10
  %20 = load i32, ptr %5, align 4, !tbaa !29
  %21 = zext i32 %20 to i64
  %22 = getelementptr inbounds nuw [7 x i64], ptr %19, i64 0, i64 %21
  %23 = load i64, ptr %22, align 8, !tbaa !30
  store i64 %23, ptr %8, align 8, !tbaa !30
  %24 = load i32, ptr %6, align 4, !tbaa !29
  %25 = icmp ult i32 %24, 6
  br i1 %25, label %26, label %34

26:                                               ; preds = %3
  %27 = load i32, ptr %6, align 4, !tbaa !29
  %28 = zext i32 %27 to i64
  %29 = shl i64 1, %28
  %30 = shl i64 1, %29
  %31 = sub i64 %30, 1
  %32 = load i64, ptr %8, align 8, !tbaa !30
  %33 = and i64 %32, %31
  store i64 %33, ptr %8, align 8, !tbaa !30
  br label %34

34:                                               ; preds = %26, %3
  %35 = load i64, ptr %7, align 8, !tbaa !30
  %36 = load i64, ptr %8, align 8, !tbaa !30
  %37 = and i64 %35, %36
  %38 = load i64, ptr %8, align 8, !tbaa !30
  %39 = icmp eq i64 %37, %38
  call void @llvm.lifetime.end.p0(i64 8, ptr %8) #3
  call void @llvm.lifetime.end.p0(i64 8, ptr %7) #3
  ret i1 %39
}