; Function Attrs: mustprogress nofree norecurse nosync nounwind willreturn memory(argmem: read) uwtable
define hidden noundef zeroext i1 @_ZN3sat10lut_finder14lut_is_definedEjj(ptr noundef nonnull readonly align 8 captures(none) dereferenceable(176) %0, i32 noundef %1, i32 noundef %2) local_unnamed_addr #5 align 2 {
  %4 = getelementptr inbounds nuw i8, ptr %0, i64 24
  %5 = load i64, ptr %4, align 8, !tbaa !62
  %6 = zext i32 %1 to i64
  %7 = getelementptr inbounds nuw i8, ptr %0, i64 80
  %8 = getelementptr inbounds nuw [7 x i64], ptr %7, i64 0, i64 %6
  %9 = load i64, ptr %8, align 8, !tbaa !34
  %10 = icmp ult i32 %2, 6
  %11 = zext nneg i32 %2 to i64
  %12 = shl nuw nsw i64 1, %11
  %notmask = shl nsw i64 -1, %12
  %13 = xor i64 %notmask, -1
  %14 = select i1 %10, i64 %13, i64 -1
  %.0 = and i64 %9, %14
  %15 = shl nuw i64 1, %6
  %16 = lshr i64 %5, %15
  %17 = or i64 %16, %5
  %18 = and i64 %17, %.0
  %19 = icmp eq i64 %18, %.0
  ret i1 %19
}